; Function Attrs: mustprogress nounwind uwtable
define dso_local void @_ZN25btDiscreteDynamicsWorldMtD0Ev(ptr noundef nonnull align 8 dereferenceable(520) %0) unnamed_addr #4 align 2 personality ptr @__gxx_personality_v0 {
  tail call void @_ZN23btDiscreteDynamicsWorldD2Ev(ptr noundef nonnull align 8 dereferenceable(520) %0) #11
  invoke void @_Z21btAlignedFreeInternalPv(ptr noundef nonnull %0)
          to label %_ZN25btDiscreteDynamicsWorldMtdlEPv.exit unwind label %2

2:                                                ; preds = %1
  %3 = landingpad { ptr, i32 }
          catch ptr null
  %4 = extractvalue { ptr, i32 } %3, 0
  tail call void @__clang_call_terminate(ptr %4) #12
  unreachable

_ZN25btDiscreteDynamicsWorldMtdlEPv.exit:         ; preds = %1
  ret void
}